target datalayout = "e-m:e-p270:32:32-p271:32:32-p272:64:64-i64:64-i128:128-f80:128-n8:16:32:64-S128"
target triple = "x86_64-pc-linux-gnu"

%"class.google::protobuf::internal::LogMessage" = type { i32, ptr, i32, %"class.std::__cxx11::basic_string" }
%"class.std::__cxx11::basic_string" = type { %"struct.std::__cxx11::basic_string<char>::_Alloc_hider", i64, %union.anon.0 }
%"struct.std::__cxx11::basic_string<char>::_Alloc_hider" = type { ptr }
%union.anon.0 = type { i64, [8 x i8] }
%"class.google::protobuf::internal::LogFinisher" = type { i8 }
%"struct.google::protobuf::internal::ExtensionInfo" = type { i8, i8, i8, %union.anon, ptr }
%union.anon = type { %"struct.google::protobuf::internal::ExtensionInfo::EnumValidityCheck" }
%"struct.google::protobuf::internal::ExtensionInfo::EnumValidityCheck" = type { ptr, ptr }

@.str = private unnamed_addr constant [43 x i8] c"third_party/protobuf-lite/extension_set.cc\00", align 1
@.str.1 = private unnamed_addr constant [54 x i8] c"CHECK failed: (type) != (WireFormatLite::TYPE_ENUM): \00", align 1
@.str.2 = private unnamed_addr constant [57 x i8] c"CHECK failed: (type) != (WireFormatLite::TYPE_MESSAGE): \00", align 1
@.str.3 = private unnamed_addr constant [55 x i8] c"CHECK failed: (type) != (WireFormatLite::TYPE_GROUP): \00", align 1

; Function Attrs: mustprogress nounwind uwtable
define linkonce_odr void @_ZN6google8protobuf8internal13ExtensionInfoC2Ehbb(ptr noundef nonnull align 8 dereferenceable(32) %0, i8 noundef zeroext %1, i1 noundef zeroext %2, i1 noundef zeroext %3) unnamed_addr #4 comdat align 2 {
  %5 = alloca ptr, align 8
  %6 = alloca i8, align 1
  %7 = alloca i8, align 1
  %8 = alloca i8, align 1
  store ptr %0, ptr %5, align 8
  store i8 %1, ptr %6, align 1
  %9 = zext i1 %2 to i8
  store i8 %9, ptr %7, align 1
  %10 = zext i1 %3 to i8
  store i8 %10, ptr %8, align 1
  %11 = load ptr, ptr %5, align 8
  %12 = getelementptr inbounds %"struct.google::protobuf::internal::ExtensionInfo", ptr %11, i32 0, i32 0
  %13 = load i8, ptr %6, align 1
  store i8 %13, ptr %12, align 8
  %14 = getelementptr inbounds %"struct.google::protobuf::internal::ExtensionInfo", ptr %11, i32 0, i32 1
  %15 = load i8, ptr %7, align 1
  %16 = trunc i8 %15 to i1
  %17 = zext i1 %16 to i8
  store i8 %17, ptr %14, align 1
  %18 = getelementptr inbounds %"struct.google::protobuf::internal::ExtensionInfo", ptr %11, i32 0, i32 2
  %19 = load i8, ptr %8, align 1
  %20 = trunc i8 %19 to i1
  %21 = zext i1 %20 to i8
  store i8 %21, ptr %18, align 2
  %22 = getelementptr inbounds %"struct.google::protobuf::internal::ExtensionInfo", ptr %11, i32 0, i32 4
  store ptr null, ptr %22, align 8
  ret void
}

; Function Attrs: mustprogress uwtable
define void @_ZN6google8protobuf8internal12ExtensionSet17RegisterExtensionEPKNS0_11MessageLiteEihbb(ptr noundef %0, i32 noundef %1, i8 noundef zeroext %2, i1 noundef zeroext %3, i1 noundef zeroext %4) #6 align 2 personality ptr @__gxx_personality_v0 {
  %6 = alloca ptr, align 8
  %7 = alloca i32, align 4
  %8 = alloca i8, align 1
  %9 = alloca i8, align 1
  %10 = alloca i8, align 1
  %11 = alloca %"class.google::protobuf::internal::LogMessage", align 8
  %12 = alloca i1, align 1
  %13 = alloca ptr, align 8
  %14 = alloca i32, align 4
  %15 = alloca %"class.google::protobuf::internal::LogFinisher", align 1
  %16 = alloca %"class.google::protobuf::internal::LogMessage", align 8
  %17 = alloca i1, align 1
  %18 = alloca %"class.google::protobuf::internal::LogFinisher", align 1
  %19 = alloca %"class.google::protobuf::internal::LogMessage", align 8
  %20 = alloca i1, align 1
  %21 = alloca %"class.google::protobuf::internal::LogFinisher", align 1
  %22 = alloca %"struct.google::protobuf::internal::ExtensionInfo", align 8
  %23 = alloca %"struct.google::protobuf::internal::ExtensionInfo", align 8
  store ptr %0, ptr %6, align 8
  store i32 %1, ptr %7, align 4
  store i8 %2, ptr %8, align 1
  %24 = zext i1 %3 to i8
  store i8 %24, ptr %9, align 1
  %25 = zext i1 %4 to i8
  store i8 %25, ptr %10, align 1
  %26 = load i8, ptr %8, align 1
  %27 = zext i8 %26 to i32
  %28 = icmp ne i32 %27, 14
  store i1 false, ptr %12, align 1
  br i1 %28, label %29, label %30

29:                                               ; preds = %5
  br label %34

30:                                               ; preds = %5
  call void @_ZN6google8protobuf8internal10LogMessageC1ENS0_8LogLevelEPKci(ptr noundef nonnull align 8 dereferenceable(56) %11, i32 noundef 3, ptr noundef @.str, i32 noundef 140)
  store i1 true, ptr %12, align 1
  %31 = invoke noundef nonnull align 8 dereferenceable(56) ptr @_ZN6google8protobuf8internal10LogMessagelsEPKc(ptr noundef nonnull align 8 dereferenceable(56) %11, ptr noundef @.str.1)
          to label %32 unwind label %69

32:                                               ; preds = %30
  invoke void @_ZN6google8protobuf8internal11LogFinisheraSERNS1_10LogMessageE(ptr noundef nonnull align 1 dereferenceable(1) %15, ptr noundef nonnull align 8 dereferenceable(56) %31)
          to label %33 unwind label %69

33:                                               ; preds = %32
  br label %34

34:                                               ; preds = %33, %29
  %35 = load i1, ptr %12, align 1
  br i1 %35, label %36, label %37

36:                                               ; preds = %34
  call void @_ZN6google8protobuf8internal10LogMessageD1Ev(ptr noundef nonnull align 8 dereferenceable(56) %11) #3
  br label %37

37:                                               ; preds = %36, %34
  %38 = load i8, ptr %8, align 1
  %39 = zext i8 %38 to i32
  %40 = icmp ne i32 %39, 11
  store i1 false, ptr %17, align 1
  br i1 %40, label %41, label %42

41:                                               ; preds = %37
  br label %46

42:                                               ; preds = %37
  call void @_ZN6google8protobuf8internal10LogMessageC1ENS0_8LogLevelEPKci(ptr noundef nonnull align 8 dereferenceable(56) %16, i32 noundef 3, ptr noundef @.str, i32 noundef 141)
  store i1 true, ptr %17, align 1
  %43 = invoke noundef nonnull align 8 dereferenceable(56) ptr @_ZN6google8protobuf8internal10LogMessagelsEPKc(ptr noundef nonnull align 8 dereferenceable(56) %16, ptr noundef @.str.2)
          to label %44 unwind label %76

44:                                               ; preds = %42
  invoke void @_ZN6google8protobuf8internal11LogFinisheraSERNS1_10LogMessageE(ptr noundef nonnull align 1 dereferenceable(1) %18, ptr noundef nonnull align 8 dereferenceable(56) %43)
          to label %45 unwind label %76

45:                                               ; preds = %44
  br label %46

46:                                               ; preds = %45, %41
  %47 = load i1, ptr %17, align 1
  br i1 %47, label %48, label %49

48:                                               ; preds = %46
  call void @_ZN6google8protobuf8internal10LogMessageD1Ev(ptr noundef nonnull align 8 dereferenceable(56) %16) #3
  br label %49

49:                                               ; preds = %48, %46
  %50 = load i8, ptr %8, align 1
  %51 = zext i8 %50 to i32
  %52 = icmp ne i32 %51, 10
  store i1 false, ptr %20, align 1
  br i1 %52, label %53, label %54

53:                                               ; preds = %49
  br label %58

54:                                               ; preds = %49
  call void @_ZN6google8protobuf8internal10LogMessageC1ENS0_8LogLevelEPKci(ptr noundef nonnull align 8 dereferenceable(56) %19, i32 noundef 3, ptr noundef @.str, i32 noundef 142)
  store i1 true, ptr %20, align 1
  %55 = invoke noundef nonnull align 8 dereferenceable(56) ptr @_ZN6google8protobuf8internal10LogMessagelsEPKc(ptr noundef nonnull align 8 dereferenceable(56) %19, ptr noundef @.str.3)
          to label %56 unwind label %83

56:                                               ; preds = %54
  invoke void @_ZN6google8protobuf8internal11LogFinisheraSERNS1_10LogMessageE(ptr noundef nonnull align 1 dereferenceable(1) %21, ptr noundef nonnull align 8 dereferenceable(56) %55)
          to label %57 unwind label %83

57:                                               ; preds = %56
  br label %58

58:                                               ; preds = %57, %53
  %59 = load i1, ptr %20, align 1
  br i1 %59, label %60, label %61

60:                                               ; preds = %58
  call void @_ZN6google8protobuf8internal10LogMessageD1Ev(ptr noundef nonnull align 8 dereferenceable(56) %19) #3
  br label %61

61:                                               ; preds = %60, %58
  %62 = load i8, ptr %8, align 1
  %63 = load i8, ptr %9, align 1
  %64 = trunc i8 %63 to i1
  %65 = load i8, ptr %10, align 1
  %66 = trunc i8 %65 to i1
  call void @_ZN6google8protobuf8internal13ExtensionInfoC2Ehbb(ptr noundef nonnull align 8 dereferenceable(32) %22, i8 noundef zeroext %62, i1 noundef zeroext %64, i1 noundef zeroext %66)
  %67 = load ptr, ptr %6, align 8
  %68 = load i32, ptr %7, align 4
  call void @llvm.memcpy.p0.p0.i64(ptr align 8 %23, ptr align 8 %22, i64 32, i1 false)
  call void @_ZN6google8protobuf8internal12_GLOBAL__N_18RegisterEPKNS0_11MessageLiteEiNS1_13ExtensionInfoE(ptr noundef %67, i32 noundef %68, ptr noundef byval(%"struct.google::protobuf::internal::ExtensionInfo") align 8 %23)
  ret void

69:                                               ; preds = %32, %30
  %70 = landingpad { ptr, i32 }
          cleanup
  %71 = extractvalue { ptr, i32 } %70, 0
  store ptr %71, ptr %13, align 8
  %72 = extractvalue { ptr, i32 } %70, 1
  store i32 %72, ptr %14, align 4
  %73 = load i1, ptr %12, align 1
  br i1 %73, label %74, label %75

74:                                               ; preds = %69
  call void @_ZN6google8protobuf8internal10LogMessageD1Ev(ptr noundef nonnull align 8 dereferenceable(56) %11) #3
  br label %75

75:                                               ; preds = %74, %69
  br label %90

76:                                               ; preds = %44, %42
  %77 = landingpad { ptr, i32 }
          cleanup
  %78 = extractvalue { ptr, i32 } %77, 0
  store ptr %78, ptr %13, align 8
  %79 = extractvalue { ptr, i32 } %77, 1
  store i32 %79, ptr %14, align 4
  %80 = load i1, ptr %17, align 1
  br i1 %80, label %81, label %82

81:                                               ; preds = %76
  call void @_ZN6google8protobuf8internal10LogMessageD1Ev(ptr noundef nonnull align 8 dereferenceable(56) %16) #3
  br label %82

82:                                               ; preds = %81, %76
  br label %90

83:                                               ; preds = %56, %54
  %84 = landingpad { ptr, i32 }
          cleanup
  %85 = extractvalue { ptr, i32 } %84, 0
  store ptr %85, ptr %13, align 8
  %86 = extractvalue { ptr, i32 } %84, 1
  store i32 %86, ptr %14, align 4
  %87 = load i1, ptr %20, align 1
  br i1 %87, label %88, label %89

88:                                               ; preds = %83
  call void @_ZN6google8protobuf8internal10LogMessageD1Ev(ptr noundef nonnull align 8 dereferenceable(56) %19) #3
  br label %89

89:                                               ; preds = %88, %83
  br label %90

90:                                               ; preds = %89, %82, %75
  %91 = load ptr, ptr %13, align 8
  %92 = load i32, ptr %14, align 4
  %93 = insertvalue { ptr, i32 } poison, ptr %91, 0
  %94 = insertvalue { ptr, i32 } %93, i32 %92, 1
  resume { ptr, i32 } %94
}