; Function Attrs: mustprogress uwtable
define void @_ZN6google8protobuf8internal12ExtensionSet17RegisterExtensionEPKNS0_11MessageLiteEihbb(ptr noundef %0, i32 noundef %1, i8 noundef zeroext %2, i1 noundef zeroext %3, i1 noundef zeroext %4) local_unnamed_addr #8 align 2 personality ptr @__gxx_personality_v0 {
  %6 = alloca %"class.google::protobuf::internal::LogMessage", align 8
  %7 = alloca %"class.google::protobuf::internal::LogFinisher", align 1
  %8 = alloca %"class.google::protobuf::internal::LogMessage", align 8
  %9 = alloca %"class.google::protobuf::internal::LogFinisher", align 1
  %10 = alloca %"class.google::protobuf::internal::LogMessage", align 8
  %11 = alloca %"class.google::protobuf::internal::LogFinisher", align 1
  %12 = alloca %"struct.google::protobuf::internal::ExtensionInfo", align 8
  switch i8 %2, label %.critedge25 [
    i8 14, label %13
    i8 11, label %16
    i8 10, label %19
  ]

13:                                               ; preds = %5
  call void @_ZN6google8protobuf8internal10LogMessageC1ENS0_8LogLevelEPKci(ptr noundef nonnull align 8 dereferenceable(56) %6, i32 noundef 3, ptr noundef nonnull @.str, i32 noundef 140)
  %14 = invoke noundef nonnull align 8 dereferenceable(56) ptr @_ZN6google8protobuf8internal10LogMessagelsEPKc(ptr noundef nonnull align 8 dereferenceable(56) %6, ptr noundef nonnull @.str.1)
          to label %15 unwind label %24

15:                                               ; preds = %13
  invoke void @_ZN6google8protobuf8internal11LogFinisheraSERNS1_10LogMessageE(ptr noundef nonnull align 1 dereferenceable(1) %7, ptr noundef nonnull align 8 dereferenceable(56) %14)
          to label %.critedge25.sink.split unwind label %24

16:                                               ; preds = %5
  call void @_ZN6google8protobuf8internal10LogMessageC1ENS0_8LogLevelEPKci(ptr noundef nonnull align 8 dereferenceable(56) %8, i32 noundef 3, ptr noundef nonnull @.str, i32 noundef 141)
  %17 = invoke noundef nonnull align 8 dereferenceable(56) ptr @_ZN6google8protobuf8internal10LogMessagelsEPKc(ptr noundef nonnull align 8 dereferenceable(56) %8, ptr noundef nonnull @.str.2)
          to label %18 unwind label %26

18:                                               ; preds = %16
  invoke void @_ZN6google8protobuf8internal11LogFinisheraSERNS1_10LogMessageE(ptr noundef nonnull align 1 dereferenceable(1) %9, ptr noundef nonnull align 8 dereferenceable(56) %17)
          to label %.critedge25.sink.split unwind label %26

19:                                               ; preds = %5
  call void @_ZN6google8protobuf8internal10LogMessageC1ENS0_8LogLevelEPKci(ptr noundef nonnull align 8 dereferenceable(56) %10, i32 noundef 3, ptr noundef nonnull @.str, i32 noundef 142)
  %20 = invoke noundef nonnull align 8 dereferenceable(56) ptr @_ZN6google8protobuf8internal10LogMessagelsEPKc(ptr noundef nonnull align 8 dereferenceable(56) %10, ptr noundef nonnull @.str.3)
          to label %21 unwind label %28

21:                                               ; preds = %19
  invoke void @_ZN6google8protobuf8internal11LogFinisheraSERNS1_10LogMessageE(ptr noundef nonnull align 1 dereferenceable(1) %11, ptr noundef nonnull align 8 dereferenceable(56) %20)
          to label %.critedge25.sink.split unwind label %28

.critedge25.sink.split:                           ; preds = %21, %18, %15
  %.sink = phi ptr [ %6, %15 ], [ %8, %18 ], [ %10, %21 ]
  call void @_ZN6google8protobuf8internal10LogMessageD1Ev(ptr noundef nonnull align 8 dereferenceable(56) %.sink) #23
  br label %.critedge25

.critedge25:                                      ; preds = %.critedge25.sink.split, %5
  %22 = zext i1 %3 to i8
  %23 = zext i1 %4 to i8
  store i8 %2, ptr %12, align 8
  %.sroa.2.0..sroa_idx = getelementptr inbounds i8, ptr %12, i64 1
  store i8 %22, ptr %.sroa.2.0..sroa_idx, align 1
  %.sroa.3.0..sroa_idx = getelementptr inbounds i8, ptr %12, i64 2
  store i8 %23, ptr %.sroa.3.0..sroa_idx, align 2
  %.sroa.426.0..sroa_idx = getelementptr inbounds i8, ptr %12, i64 24
  store ptr null, ptr %.sroa.426.0..sroa_idx, align 8
  call fastcc void @_ZN6google8protobuf8internal12_GLOBAL__N_18RegisterEPKNS0_11MessageLiteEiNS1_13ExtensionInfoE(ptr noundef %0, i32 noundef %1, ptr noundef nonnull byval(%"struct.google::protobuf::internal::ExtensionInfo") align 8 %12)
  ret void

24:                                               ; preds = %15, %13
  %25 = landingpad { ptr, i32 }
          cleanup
  br label %30

26:                                               ; preds = %18, %16
  %27 = landingpad { ptr, i32 }
          cleanup
  br label %30

28:                                               ; preds = %21, %19
  %29 = landingpad { ptr, i32 }
          cleanup
  br label %30

30:                                               ; preds = %28, %26, %24
  %.sink29 = phi ptr [ %10, %28 ], [ %8, %26 ], [ %6, %24 ]
  %.pn = phi { ptr, i32 } [ %29, %28 ], [ %27, %26 ], [ %25, %24 ]
  call void @_ZN6google8protobuf8internal10LogMessageD1Ev(ptr noundef nonnull align 8 dereferenceable(56) %.sink29) #23
  resume { ptr, i32 } %.pn
}